target datalayout = "e-m:e-p270:32:32-p271:32:32-p272:64:64-i64:64-i128:128-f80:128-n8:16:32:64-S128"
target triple = "x86_64-pc-linux-gnu"

%"struct.std::__detail::_List_node_header" = type { %"struct.std::__detail::_List_node_base", i64 }
%"struct.std::__detail::_List_node_base" = type { ptr, ptr }
%"struct.std::_Rb_tree_header" = type { %"struct.std::_Rb_tree_node_base", i64 }
%"struct.std::_Rb_tree_node_base" = type { i32, ptr, ptr, ptr }
%"struct.llvm::LaneBitmask" = type { i64 }
%"class.llvm::SmallVectorBase" = type { ptr, i32, i32 }
%"class.llvm::CodeGenRegBank" = type { %"class.llvm::SetTheory", ptr, %"class.std::deque", %"class.llvm::DenseMap.77", %"class.std::map.80", %"class.std::deque.86", %"class.llvm::StringMap.92", %"class.llvm::DenseMap.93", i32, %"class.std::map.96", %"class.llvm::SmallVector.102", %"class.std::__cxx11::list", %"class.llvm::DenseMap.110", %"class.std::map.113", %"class.std::__cxx11::list.119", %"class.llvm::DenseMap.124", %"class.std::map.127", %"class.std::vector.132", %"class.std::vector.137", %"class.std::vector.142", %"class.std::vector.147", %"struct.llvm::LaneBitmask" }
%"class.llvm::SetTheory" = type { %"class.std::map.67", %"class.llvm::StringMap", %"class.llvm::StringMap.73" }
%"class.std::map.67" = type { %"class.std::_Rb_tree.68" }
%"class.std::_Rb_tree.68" = type { %"struct.std::_Rb_tree<const llvm::Record *, std::pair<const llvm::Record *const, std::vector<llvm::Record *>>, std::_Select1st<std::pair<const llvm::Record *const, std::vector<llvm::Record *>>>, std::less<const llvm::Record *>>::_Rb_tree_impl" }
%"struct.std::_Rb_tree<const llvm::Record *, std::pair<const llvm::Record *const, std::vector<llvm::Record *>>, std::_Select1st<std::pair<const llvm::Record *const, std::vector<llvm::Record *>>>, std::less<const llvm::Record *>>::_Rb_tree_impl" = type { [8 x i8], %"struct.std::_Rb_tree_header" }
%"class.llvm::StringMap" = type { %"class.llvm::StringMapImpl" }
%"class.llvm::StringMapImpl" = type { ptr, i32, i32, i32, i32 }
%"class.llvm::StringMap.73" = type { %"class.llvm::StringMapImpl" }
%"class.std::deque" = type { %"class.std::_Deque_base" }
%"class.std::_Deque_base" = type { %"struct.std::_Deque_base<llvm::CodeGenSubRegIndex, std::allocator<llvm::CodeGenSubRegIndex>>::_Deque_impl" }
%"struct.std::_Deque_base<llvm::CodeGenSubRegIndex, std::allocator<llvm::CodeGenSubRegIndex>>::_Deque_impl" = type { %"struct.std::_Deque_base<llvm::CodeGenSubRegIndex, std::allocator<llvm::CodeGenSubRegIndex>>::_Deque_impl_data" }
%"struct.std::_Deque_base<llvm::CodeGenSubRegIndex, std::allocator<llvm::CodeGenSubRegIndex>>::_Deque_impl_data" = type { ptr, i64, %"struct.std::_Deque_iterator", %"struct.std::_Deque_iterator" }
%"struct.std::_Deque_iterator" = type { ptr, ptr, ptr, ptr }
%"class.llvm::DenseMap.77" = type <{ ptr, i32, i32, i32, [4 x i8] }>
%"class.std::map.80" = type { %"class.std::_Rb_tree.81" }
%"class.std::_Rb_tree.81" = type { %"struct.std::_Rb_tree<llvm::SmallVector<llvm::CodeGenSubRegIndex *, 8>, std::pair<const llvm::SmallVector<llvm::CodeGenSubRegIndex *, 8>, llvm::CodeGenSubRegIndex *>, std::_Select1st<std::pair<const llvm::SmallVector<llvm::CodeGenSubRegIndex *, 8>, llvm::CodeGenSubRegIndex *>>, std::less<llvm::SmallVector<llvm::CodeGenSubRegIndex *, 8>>>::_Rb_tree_impl" }
%"struct.std::_Rb_tree<llvm::SmallVector<llvm::CodeGenSubRegIndex *, 8>, std::pair<const llvm::SmallVector<llvm::CodeGenSubRegIndex *, 8>, llvm::CodeGenSubRegIndex *>, std::_Select1st<std::pair<const llvm::SmallVector<llvm::CodeGenSubRegIndex *, 8>, llvm::CodeGenSubRegIndex *>>, std::less<llvm::SmallVector<llvm::CodeGenSubRegIndex *, 8>>>::_Rb_tree_impl" = type { [8 x i8], %"struct.std::_Rb_tree_header" }
%"class.std::deque.86" = type { %"class.std::_Deque_base.87" }
%"class.std::_Deque_base.87" = type { %"struct.std::_Deque_base<llvm::CodeGenRegister, std::allocator<llvm::CodeGenRegister>>::_Deque_impl" }
%"struct.std::_Deque_base<llvm::CodeGenRegister, std::allocator<llvm::CodeGenRegister>>::_Deque_impl" = type { %"struct.std::_Deque_base<llvm::CodeGenRegister, std::allocator<llvm::CodeGenRegister>>::_Deque_impl_data" }
%"struct.std::_Deque_base<llvm::CodeGenRegister, std::allocator<llvm::CodeGenRegister>>::_Deque_impl_data" = type { ptr, i64, %"struct.std::_Deque_iterator.91", %"struct.std::_Deque_iterator.91" }
%"struct.std::_Deque_iterator.91" = type { ptr, ptr, ptr, ptr }
%"class.llvm::StringMap.92" = type { %"class.llvm::StringMapImpl" }
%"class.llvm::DenseMap.93" = type <{ ptr, i32, i32, i32, [4 x i8] }>
%"class.std::map.96" = type { %"class.std::_Rb_tree.97" }
%"class.std::_Rb_tree.97" = type { %"struct.std::_Rb_tree<llvm::SmallVector<unsigned int, 16>, std::pair<const llvm::SmallVector<unsigned int, 16>, unsigned int>, std::_Select1st<std::pair<const llvm::SmallVector<unsigned int, 16>, unsigned int>>, std::less<llvm::SmallVector<unsigned int, 16>>>::_Rb_tree_impl" }
%"struct.std::_Rb_tree<llvm::SmallVector<unsigned int, 16>, std::pair<const llvm::SmallVector<unsigned int, 16>, unsigned int>, std::_Select1st<std::pair<const llvm::SmallVector<unsigned int, 16>, unsigned int>>, std::less<llvm::SmallVector<unsigned int, 16>>>::_Rb_tree_impl" = type { [8 x i8], %"struct.std::_Rb_tree_header" }
%"class.llvm::SmallVector.102" = type { %"class.llvm::SmallVectorImpl.103", %"struct.llvm::SmallVectorStorage.106" }
%"class.llvm::SmallVectorImpl.103" = type { %"class.llvm::SmallVectorTemplateBase.104" }
%"class.llvm::SmallVectorTemplateBase.104" = type { %"class.llvm::SmallVectorTemplateCommon.105" }
%"class.llvm::SmallVectorTemplateCommon.105" = type { %"class.llvm::SmallVectorBase" }
%"struct.llvm::SmallVectorStorage.106" = type { [256 x i8] }
%"class.std::__cxx11::list" = type { %"class.std::__cxx11::_List_base" }
%"class.std::__cxx11::_List_base" = type { %"struct.std::__cxx11::_List_base<llvm::CodeGenRegisterClass, std::allocator<llvm::CodeGenRegisterClass>>::_List_impl" }
%"struct.std::__cxx11::_List_base<llvm::CodeGenRegisterClass, std::allocator<llvm::CodeGenRegisterClass>>::_List_impl" = type { %"struct.std::__detail::_List_node_header" }
%"class.llvm::DenseMap.110" = type <{ ptr, i32, i32, i32, [4 x i8] }>
%"class.std::map.113" = type { %"class.std::_Rb_tree.114" }
%"class.std::_Rb_tree.114" = type { %"struct.std::_Rb_tree<llvm::CodeGenRegisterClass::Key, std::pair<const llvm::CodeGenRegisterClass::Key, llvm::CodeGenRegisterClass *>, std::_Select1st<std::pair<const llvm::CodeGenRegisterClass::Key, llvm::CodeGenRegisterClass *>>, std::less<llvm::CodeGenRegisterClass::Key>>::_Rb_tree_impl" }
%"struct.std::_Rb_tree<llvm::CodeGenRegisterClass::Key, std::pair<const llvm::CodeGenRegisterClass::Key, llvm::CodeGenRegisterClass *>, std::_Select1st<std::pair<const llvm::CodeGenRegisterClass::Key, llvm::CodeGenRegisterClass *>>, std::less<llvm::CodeGenRegisterClass::Key>>::_Rb_tree_impl" = type { [8 x i8], %"struct.std::_Rb_tree_header" }
%"class.std::__cxx11::list.119" = type { %"class.std::__cxx11::_List_base.120" }
%"class.std::__cxx11::_List_base.120" = type { %"struct.std::__cxx11::_List_base<llvm::CodeGenRegisterCategory, std::allocator<llvm::CodeGenRegisterCategory>>::_List_impl" }
%"struct.std::__cxx11::_List_base<llvm::CodeGenRegisterCategory, std::allocator<llvm::CodeGenRegisterCategory>>::_List_impl" = type { %"struct.std::__detail::_List_node_header" }
%"class.llvm::DenseMap.124" = type <{ ptr, i32, i32, i32, [4 x i8] }>
%"class.std::map.127" = type { %"class.std::_Rb_tree.128" }
%"class.std::_Rb_tree.128" = type { %"struct.std::_Rb_tree<llvm::CodeGenRegisterClass::Key, std::pair<const llvm::CodeGenRegisterClass::Key, llvm::CodeGenRegisterCategory *>, std::_Select1st<std::pair<const llvm::CodeGenRegisterClass::Key, llvm::CodeGenRegisterCategory *>>, std::less<llvm::CodeGenRegisterClass::Key>>::_Rb_tree_impl" }
%"struct.std::_Rb_tree<llvm::CodeGenRegisterClass::Key, std::pair<const llvm::CodeGenRegisterClass::Key, llvm::CodeGenRegisterCategory *>, std::_Select1st<std::pair<const llvm::CodeGenRegisterClass::Key, llvm::CodeGenRegisterCategory *>>, std::less<llvm::CodeGenRegisterClass::Key>>::_Rb_tree_impl" = type { [8 x i8], %"struct.std::_Rb_tree_header" }
%"class.std::vector.132" = type { %"struct.std::_Vector_base.133" }
%"struct.std::_Vector_base.133" = type { %"struct.std::_Vector_base<llvm::RegUnitSet, std::allocator<llvm::RegUnitSet>>::_Vector_impl" }
%"struct.std::_Vector_base<llvm::RegUnitSet, std::allocator<llvm::RegUnitSet>>::_Vector_impl" = type { %"struct.std::_Vector_base<llvm::RegUnitSet, std::allocator<llvm::RegUnitSet>>::_Vector_impl_data" }
%"struct.std::_Vector_base<llvm::RegUnitSet, std::allocator<llvm::RegUnitSet>>::_Vector_impl_data" = type { ptr, ptr, ptr }
%"class.std::vector.137" = type { %"struct.std::_Vector_base.138" }
%"struct.std::_Vector_base.138" = type { %"struct.std::_Vector_base<std::vector<unsigned int>, std::allocator<std::vector<unsigned int>>>::_Vector_impl" }
%"struct.std::_Vector_base<std::vector<unsigned int>, std::allocator<std::vector<unsigned int>>>::_Vector_impl" = type { %"struct.std::_Vector_base<std::vector<unsigned int>, std::allocator<std::vector<unsigned int>>>::_Vector_impl_data" }
%"struct.std::_Vector_base<std::vector<unsigned int>, std::allocator<std::vector<unsigned int>>>::_Vector_impl_data" = type { ptr, ptr, ptr }
%"class.std::vector.142" = type { %"struct.std::_Vector_base.143" }
%"struct.std::_Vector_base.143" = type { %"struct.std::_Vector_base<unsigned int, std::allocator<unsigned int>>::_Vector_impl" }
%"struct.std::_Vector_base<unsigned int, std::allocator<unsigned int>>::_Vector_impl" = type { %"struct.std::_Vector_base<unsigned int, std::allocator<unsigned int>>::_Vector_impl_data" }
%"struct.std::_Vector_base<unsigned int, std::allocator<unsigned int>>::_Vector_impl_data" = type { ptr, ptr, ptr }
%"class.std::vector.147" = type { %"struct.std::_Vector_base.148" }
%"struct.std::_Vector_base.148" = type { %"struct.std::_Vector_base<std::unique_ptr<llvm::Record>, std::allocator<std::unique_ptr<llvm::Record>>>::_Vector_impl" }
%"struct.std::_Vector_base<std::unique_ptr<llvm::Record>, std::allocator<std::unique_ptr<llvm::Record>>>::_Vector_impl" = type { %"struct.std::_Vector_base<std::unique_ptr<llvm::Record>, std::allocator<std::unique_ptr<llvm::Record>>>::_Vector_impl_data" }
%"struct.std::_Vector_base<std::unique_ptr<llvm::Record>, std::allocator<std::unique_ptr<llvm::Record>>>::_Vector_impl_data" = type { ptr, ptr, ptr }
%"struct.std::pair.630" = type { ptr, ptr }
%"struct.llvm::detail::DenseMapPair.629" = type { %"struct.std::pair.630" }

; Function Attrs: mustprogress nounwind uwtable
define linkonce_odr hidden noundef i32 @_ZN4llvm12DenseMapInfoIPNS_6RecordEvE12getHashValueEPKS1_(ptr noundef %0) #0 comdat align 2 {
  %2 = alloca ptr, align 8
  store ptr %0, ptr %2, align 8
  %3 = load ptr, ptr %2, align 8
  %4 = ptrtoint ptr %3 to i64
  %5 = trunc i64 %4 to i32
  %6 = lshr i32 %5, 4
  %7 = load ptr, ptr %2, align 8
  %8 = ptrtoint ptr %7 to i64
  %9 = trunc i64 %8 to i32
  %10 = lshr i32 %9, 9
  %11 = xor i32 %6, %10
  ret i32 %11
}

; Function Attrs: mustprogress nounwind uwtable
define linkonce_odr hidden noundef ptr @_ZN4llvm12DenseMapInfoIPNS_6RecordEvE11getEmptyKeyEv() #0 comdat align 2 {
  %1 = alloca i64, align 8
  store i64 -1, ptr %1, align 8
  %2 = load i64, ptr %1, align 8
  %3 = shl i64 %2, 12
  store i64 %3, ptr %1, align 8
  %4 = load i64, ptr %1, align 8
  %5 = inttoptr i64 %4 to ptr
  ret ptr %5
}

; Function Attrs: mustprogress nounwind uwtable
define linkonce_odr hidden noundef i32 @_ZNK4llvm8DenseMapIPNS_6RecordEPNS_18CodeGenSubRegIndexENS_12DenseMapInfoIS2_vEENS_6detail12DenseMapPairIS2_S4_EEE13getNumBucketsEv(ptr noundef nonnull align 8 dereferenceable(20) %0) #0 comdat align 2 {
  %2 = alloca ptr, align 8
  store ptr %0, ptr %2, align 8
  %3 = load ptr, ptr %2, align 8
  %4 = getelementptr inbounds nuw %"class.llvm::DenseMap.77", ptr %3, i32 0, i32 3
  %5 = load i32, ptr %4, align 8
  ret i32 %5
}

; Function Attrs: mustprogress nounwind uwtable
define linkonce_odr hidden noundef ptr @_ZNK4llvm8DenseMapIPNS_6RecordEPNS_18CodeGenSubRegIndexENS_12DenseMapInfoIS2_vEENS_6detail12DenseMapPairIS2_S4_EEE10getBucketsEv(ptr noundef nonnull align 8 dereferenceable(20) %0) #0 comdat align 2 {
  %2 = alloca ptr, align 8
  store ptr %0, ptr %2, align 8
  %3 = load ptr, ptr %2, align 8
  %4 = getelementptr inbounds nuw %"class.llvm::DenseMap.77", ptr %3, i32 0, i32 0
  %5 = load ptr, ptr %4, align 8
  ret ptr %5
}

; Function Attrs: mustprogress nounwind uwtable
define linkonce_odr hidden noundef zeroext i1 @_ZN4llvm12DenseMapInfoIPNS_6RecordEvE7isEqualEPKS1_S5_(ptr noundef %0, ptr noundef %1) #0 comdat align 2 {
  %3 = alloca ptr, align 8
  %4 = alloca ptr, align 8
  store ptr %0, ptr %3, align 8
  store ptr %1, ptr %4, align 8
  %5 = load ptr, ptr %3, align 8
  %6 = load ptr, ptr %4, align 8
  %7 = icmp eq ptr %5, %6
  ret i1 %7
}

; Function Attrs: mustprogress nounwind uwtable
define linkonce_odr hidden noundef nonnull align 8 dereferenceable(8) ptr @_ZN4llvm6detail12DenseMapPairIPNS_6RecordEPNS_18CodeGenSubRegIndexEE8getFirstEv(ptr noundef nonnull align 8 dereferenceable(16) %0) #0 comdat align 2 {
  %2 = alloca ptr, align 8
  store ptr %0, ptr %2, align 8
  %3 = load ptr, ptr %2, align 8
  %4 = getelementptr inbounds nuw %"struct.std::pair.630", ptr %3, i32 0, i32 0
  ret ptr %4
}

; Function Attrs: mustprogress nounwind uwtable
define linkonce_odr hidden noundef i32 @_ZN4llvm12DenseMapBaseINS_8DenseMapIPNS_6RecordEPNS_18CodeGenSubRegIndexENS_12DenseMapInfoIS3_vEENS_6detail12DenseMapPairIS3_S5_EEEES3_S5_S7_SA_E12getHashValueIPKS2_EEjRKT_(ptr noundef nonnull align 8 dereferenceable(8) %0) #0 comdat align 2 {
  %2 = alloca ptr, align 8
  store ptr %0, ptr %2, align 8
  %3 = load ptr, ptr %2, align 8
  %4 = load ptr, ptr %3, align 8
  %5 = call noundef i32 @_ZN4llvm12DenseMapInfoIPNS_6RecordEvE12getHashValueEPKS1_(ptr noundef %4)
  ret i32 %5
}

; Function Attrs: mustprogress nounwind uwtable
define linkonce_odr hidden noundef ptr @_ZN4llvm12DenseMapBaseINS_8DenseMapIPNS_6RecordEPNS_18CodeGenSubRegIndexENS_12DenseMapInfoIS3_vEENS_6detail12DenseMapPairIS3_S5_EEEES3_S5_S7_SA_E11getEmptyKeyEv() #0 comdat align 2 {
  %1 = call noundef ptr @_ZN4llvm12DenseMapInfoIPNS_6RecordEvE11getEmptyKeyEv()
  ret ptr %1
}

; Function Attrs: mustprogress nounwind uwtable
define linkonce_odr hidden noundef i32 @_ZNK4llvm12DenseMapBaseINS_8DenseMapIPNS_6RecordEPNS_18CodeGenSubRegIndexENS_12DenseMapInfoIS3_vEENS_6detail12DenseMapPairIS3_S5_EEEES3_S5_S7_SA_E13getNumBucketsEv(ptr noundef nonnull align 1 dereferenceable(1) %0) #0 comdat align 2 {
  %2 = alloca ptr, align 8
  store ptr %0, ptr %2, align 8
  %3 = load ptr, ptr %2, align 8
  %4 = call noundef i32 @_ZNK4llvm8DenseMapIPNS_6RecordEPNS_18CodeGenSubRegIndexENS_12DenseMapInfoIS2_vEENS_6detail12DenseMapPairIS2_S4_EEE13getNumBucketsEv(ptr noundef nonnull align 8 dereferenceable(20) %3)
  ret i32 %4
}

; Function Attrs: mustprogress nounwind uwtable
define linkonce_odr hidden noundef ptr @_ZN4llvm12DenseMapBaseINS_8DenseMapIPNS_6RecordEPNS_18CodeGenSubRegIndexENS_12DenseMapInfoIS3_vEENS_6detail12DenseMapPairIS3_S5_EEEES3_S5_S7_SA_E10getBucketsEv(ptr noundef nonnull align 1 dereferenceable(1) %0) #0 comdat align 2 {
  %2 = alloca ptr, align 8
  store ptr %0, ptr %2, align 8
  %3 = load ptr, ptr %2, align 8
  %4 = call noundef ptr @_ZNK4llvm8DenseMapIPNS_6RecordEPNS_18CodeGenSubRegIndexENS_12DenseMapInfoIS2_vEENS_6detail12DenseMapPairIS2_S4_EEE10getBucketsEv(ptr noundef nonnull align 8 dereferenceable(20) %3)
  ret ptr %4
}

; Function Attrs: mustprogress nounwind uwtable
define linkonce_odr hidden noundef ptr @_ZN4llvm12DenseMapBaseINS_8DenseMapIPNS_6RecordEPNS_18CodeGenSubRegIndexENS_12DenseMapInfoIS3_vEENS_6detail12DenseMapPairIS3_S5_EEEES3_S5_S7_SA_E6doFindIPKS2_EEPSA_RKT_(ptr noundef nonnull align 1 dereferenceable(1) %0, ptr noundef nonnull align 8 dereferenceable(8) %1) #0 comdat align 2 {
  %3 = alloca ptr, align 8
  %4 = alloca ptr, align 8
  %5 = alloca ptr, align 8
  %6 = alloca ptr, align 8
  %7 = alloca i32, align 4
  %8 = alloca ptr, align 8
  %9 = alloca i32, align 4
  %10 = alloca i32, align 4
  %11 = alloca ptr, align 8
  store ptr %0, ptr %4, align 8
  store ptr %1, ptr %5, align 8
  %12 = load ptr, ptr %4, align 8
  %13 = call noundef ptr @_ZN4llvm12DenseMapBaseINS_8DenseMapIPNS_6RecordEPNS_18CodeGenSubRegIndexENS_12DenseMapInfoIS3_vEENS_6detail12DenseMapPairIS3_S5_EEEES3_S5_S7_SA_E10getBucketsEv(ptr noundef nonnull align 1 dereferenceable(1) %12)
  store ptr %13, ptr %6, align 8
  %14 = call noundef i32 @_ZNK4llvm12DenseMapBaseINS_8DenseMapIPNS_6RecordEPNS_18CodeGenSubRegIndexENS_12DenseMapInfoIS3_vEENS_6detail12DenseMapPairIS3_S5_EEEES3_S5_S7_SA_E13getNumBucketsEv(ptr noundef nonnull align 1 dereferenceable(1) %12)
  store i32 %14, ptr %7, align 4
  %15 = load i32, ptr %7, align 4
  %16 = icmp eq i32 %15, 0
  br i1 %16, label %17, label %18

17:                                               ; preds = %2
  store ptr null, ptr %3, align 8
  br label %54

18:                                               ; preds = %2
  %19 = call noundef ptr @_ZN4llvm12DenseMapBaseINS_8DenseMapIPNS_6RecordEPNS_18CodeGenSubRegIndexENS_12DenseMapInfoIS3_vEENS_6detail12DenseMapPairIS3_S5_EEEES3_S5_S7_SA_E11getEmptyKeyEv()
  store ptr %19, ptr %8, align 8
  %20 = load ptr, ptr %5, align 8
  %21 = call noundef i32 @_ZN4llvm12DenseMapBaseINS_8DenseMapIPNS_6RecordEPNS_18CodeGenSubRegIndexENS_12DenseMapInfoIS3_vEENS_6detail12DenseMapPairIS3_S5_EEEES3_S5_S7_SA_E12getHashValueIPKS2_EEjRKT_(ptr noundef nonnull align 8 dereferenceable(8) %20)
  %22 = load i32, ptr %7, align 4
  %23 = sub i32 %22, 1
  %24 = and i32 %21, %23
  store i32 %24, ptr %9, align 4
  store i32 1, ptr %10, align 4
  br label %25

25:                                               ; preds = %45, %18
  %26 = load ptr, ptr %6, align 8
  %27 = load i32, ptr %9, align 4
  %28 = zext i32 %27 to i64
  %29 = getelementptr inbounds %"struct.llvm::detail::DenseMapPair.629", ptr %26, i64 %28
  store ptr %29, ptr %11, align 8
  %30 = load ptr, ptr %5, align 8
  %31 = load ptr, ptr %30, align 8
  %32 = load ptr, ptr %11, align 8
  %33 = call noundef nonnull align 8 dereferenceable(8) ptr @_ZN4llvm6detail12DenseMapPairIPNS_6RecordEPNS_18CodeGenSubRegIndexEE8getFirstEv(ptr noundef nonnull align 8 dereferenceable(16) %32)
  %34 = load ptr, ptr %33, align 8
  %35 = call noundef zeroext i1 @_ZN4llvm12DenseMapInfoIPNS_6RecordEvE7isEqualEPKS1_S5_(ptr noundef %31, ptr noundef %34)
  br i1 %35, label %36, label %38

36:                                               ; preds = %25
  %37 = load ptr, ptr %11, align 8
  store ptr %37, ptr %3, align 8
  br label %54

38:                                               ; preds = %25
  %39 = load ptr, ptr %11, align 8
  %40 = call noundef nonnull align 8 dereferenceable(8) ptr @_ZN4llvm6detail12DenseMapPairIPNS_6RecordEPNS_18CodeGenSubRegIndexEE8getFirstEv(ptr noundef nonnull align 8 dereferenceable(16) %39)
  %41 = load ptr, ptr %40, align 8
  %42 = load ptr, ptr %8, align 8
  %43 = call noundef zeroext i1 @_ZN4llvm12DenseMapInfoIPNS_6RecordEvE7isEqualEPKS1_S5_(ptr noundef %41, ptr noundef %42)
  br i1 %43, label %44, label %45

44:                                               ; preds = %38
  store ptr null, ptr %3, align 8
  br label %54

45:                                               ; preds = %38
  %46 = load i32, ptr %10, align 4
  %47 = add i32 %46, 1
  store i32 %47, ptr %10, align 4
  %48 = load i32, ptr %9, align 4
  %49 = add i32 %48, %46
  store i32 %49, ptr %9, align 4
  %50 = load i32, ptr %7, align 4
  %51 = sub i32 %50, 1
  %52 = load i32, ptr %9, align 4
  %53 = and i32 %52, %51
  store i32 %53, ptr %9, align 4
  br label %25, !llvm.loop !291

54:                                               ; preds = %44, %36, %17
  %55 = load ptr, ptr %3, align 8
  ret ptr %55
}

; Function Attrs: mustprogress nounwind uwtable
define linkonce_odr hidden noundef nonnull align 8 dereferenceable(8) ptr @_ZNK4llvm6detail12DenseMapPairIPNS_6RecordEPNS_18CodeGenSubRegIndexEE9getSecondEv(ptr noundef nonnull align 8 dereferenceable(16) %0) #0 comdat align 2 {
  %2 = alloca ptr, align 8
  store ptr %0, ptr %2, align 8
  %3 = load ptr, ptr %2, align 8
  %4 = getelementptr inbounds nuw %"struct.std::pair.630", ptr %3, i32 0, i32 1
  ret ptr %4
}

; Function Attrs: mustprogress nounwind uwtable
define linkonce_odr hidden noundef ptr @_ZNK4llvm12DenseMapBaseINS_8DenseMapIPNS_6RecordEPNS_18CodeGenSubRegIndexENS_12DenseMapInfoIS3_vEENS_6detail12DenseMapPairIS3_S5_EEEES3_S5_S7_SA_E6doFindIPKS2_EEPKSA_RKT_(ptr noundef nonnull align 1 dereferenceable(1) %0, ptr noundef nonnull align 8 dereferenceable(8) %1) #0 comdat align 2 {
  %3 = alloca ptr, align 8
  %4 = alloca ptr, align 8
  store ptr %0, ptr %3, align 8
  store ptr %1, ptr %4, align 8
  %5 = load ptr, ptr %3, align 8
  %6 = load ptr, ptr %4, align 8
  %7 = call noundef ptr @_ZN4llvm12DenseMapBaseINS_8DenseMapIPNS_6RecordEPNS_18CodeGenSubRegIndexENS_12DenseMapInfoIS3_vEENS_6detail12DenseMapPairIS3_S5_EEEES3_S5_S7_SA_E6doFindIPKS2_EEPSA_RKT_(ptr noundef nonnull align 1 dereferenceable(1) %5, ptr noundef nonnull align 8 dereferenceable(8) %6)
  ret ptr %7
}

; Function Attrs: mustprogress nounwind uwtable
define linkonce_odr hidden noundef ptr @_ZNK4llvm12DenseMapBaseINS_8DenseMapIPNS_6RecordEPNS_18CodeGenSubRegIndexENS_12DenseMapInfoIS3_vEENS_6detail12DenseMapPairIS3_S5_EEEES3_S5_S7_SA_E6lookupEPKS2_(ptr noundef nonnull align 1 dereferenceable(1) %0, ptr noundef %1) #0 comdat align 2 {
  %3 = alloca ptr, align 8
  %4 = alloca ptr, align 8
  %5 = alloca ptr, align 8
  %6 = alloca ptr, align 8
  store ptr %0, ptr %4, align 8
  store ptr %1, ptr %5, align 8
  %7 = load ptr, ptr %4, align 8
  %8 = call noundef ptr @_ZNK4llvm12DenseMapBaseINS_8DenseMapIPNS_6RecordEPNS_18CodeGenSubRegIndexENS_12DenseMapInfoIS3_vEENS_6detail12DenseMapPairIS3_S5_EEEES3_S5_S7_SA_E6doFindIPKS2_EEPKSA_RKT_(ptr noundef nonnull align 1 dereferenceable(1) %7, ptr noundef nonnull align 8 dereferenceable(8) %5)
  store ptr %8, ptr %6, align 8
  %9 = load ptr, ptr %6, align 8
  %10 = icmp ne ptr %9, null
  br i1 %10, label %11, label %15

11:                                               ; preds = %2
  %12 = load ptr, ptr %6, align 8
  %13 = call noundef nonnull align 8 dereferenceable(8) ptr @_ZNK4llvm6detail12DenseMapPairIPNS_6RecordEPNS_18CodeGenSubRegIndexEE9getSecondEv(ptr noundef nonnull align 8 dereferenceable(16) %12)
  %14 = load ptr, ptr %13, align 8
  store ptr %14, ptr %3, align 8
  br label %16

15:                                               ; preds = %2
  store ptr null, ptr %3, align 8
  br label %16

16:                                               ; preds = %15, %11
  %17 = load ptr, ptr %3, align 8
  ret ptr %17
}

; Function Attrs: mustprogress nounwind uwtable
define dso_local noundef ptr @_ZNK4llvm14CodeGenRegBank13findSubRegIdxEPKNS_6RecordE(ptr noundef nonnull align 8 dereferenceable(1008) %0, ptr noundef %1) #0 align 2 {
  %3 = alloca ptr, align 8
  %4 = alloca ptr, align 8
  store ptr %0, ptr %3, align 8
  store ptr %1, ptr %4, align 8
  %5 = load ptr, ptr %3, align 8
  %6 = getelementptr inbounds nuw %"class.llvm::CodeGenRegBank", ptr %5, i32 0, i32 3
  %7 = load ptr, ptr %4, align 8
  %8 = call noundef ptr @_ZNK4llvm12DenseMapBaseINS_8DenseMapIPNS_6RecordEPNS_18CodeGenSubRegIndexENS_12DenseMapInfoIS3_vEENS_6detail12DenseMapPairIS3_S5_EEEES3_S5_S7_SA_E6lookupEPKS2_(ptr noundef nonnull align 1 dereferenceable(1) %6, ptr noundef %7)
  ret ptr %8
}